target datalayout = "e-m:e-p270:32:32-p271:32:32-p272:64:64-i64:64-i128:128-f80:128-n8:16:32:64-S128"
target triple = "x86_64-pc-linux-gnu"

; Function Attrs: mustprogress nounwind uwtable
define dso_local void @_ZN5cmsys20CommandLineArguments24DeleteRemainingArgumentsEiPPPc(ptr noundef nonnull align 8 dereferenceable(45) %0, i32 noundef %1, ptr noundef %2) #5 align 2 {
  %4 = alloca ptr, align 8
  %5 = alloca i32, align 4
  %6 = alloca ptr, align 8
  %7 = alloca i32, align 4
  store ptr %0, ptr %4, align 8, !tbaa !4
  store i32 %1, ptr %5, align 4, !tbaa !43
  store ptr %2, ptr %6, align 8, !tbaa !88
  call void @llvm.lifetime.start.p0(i64 4, ptr %7) #3
  store i32 0, ptr %7, align 4, !tbaa !43
  br label %8

8:                                                ; preds = %22, %3
  %9 = load i32, ptr %7, align 4, !tbaa !43
  %10 = load i32, ptr %5, align 4, !tbaa !43
  %11 = icmp slt i32 %9, %10
  br i1 %11, label %12, label %25

12:                                               ; preds = %8
  %13 = load ptr, ptr %6, align 8, !tbaa !88
  %14 = load ptr, ptr %13, align 8, !tbaa !44
  %15 = load i32, ptr %7, align 4, !tbaa !43
  %16 = sext i32 %15 to i64
  %17 = getelementptr inbounds ptr, ptr %14, i64 %16
  %18 = load ptr, ptr %17, align 8, !tbaa !42
  %19 = icmp eq ptr %18, null
  br i1 %19, label %21, label %20

20:                                               ; preds = %12
  call void @_ZdaPv(ptr noundef %18) #22
  br label %21

21:                                               ; preds = %20, %12
  br label %22

22:                                               ; preds = %21
  %23 = load i32, ptr %7, align 4, !tbaa !43
  %24 = add nsw i32 %23, 1
  store i32 %24, ptr %7, align 4, !tbaa !43
  br label %8, !llvm.loop !92

25:                                               ; preds = %8
  %26 = load ptr, ptr %6, align 8, !tbaa !88
  %27 = load ptr, ptr %26, align 8, !tbaa !44
  %28 = icmp eq ptr %27, null
  br i1 %28, label %30, label %29

29:                                               ; preds = %25
  call void @_ZdaPv(ptr noundef %27) #22
  br label %30

30:                                               ; preds = %29, %25
  call void @llvm.lifetime.end.p0(i64 4, ptr %7) #3
  ret void
}