; Function Attrs: mustprogress nounwind uwtable
define dso_local void @_ZN5cmsys20CommandLineArguments24DeleteRemainingArgumentsEiPPPc(ptr noundef nonnull readnone align 8 captures(none) dereferenceable(45) %0, i32 noundef %1, ptr noundef readonly captures(none) %2) local_unnamed_addr #5 align 2 {
  %4 = icmp sgt i32 %1, 0
  br i1 %4, label %.lr.ph.preheader, label %._crit_edge

.lr.ph.preheader:                                 ; preds = %3
  %wide.trip.count = zext nneg i32 %1 to i64
  br label %.lr.ph

.lr.ph:                                           ; preds = %.lr.ph.preheader, %10
  %indvars.iv = phi i64 [ 0, %.lr.ph.preheader ], [ %indvars.iv.next, %10 ]
  %5 = load ptr, ptr %2, align 8, !tbaa !101
  %6 = getelementptr inbounds nuw ptr, ptr %5, i64 %indvars.iv
  %7 = load ptr, ptr %6, align 8, !tbaa !49
  %8 = icmp eq ptr %7, null
  br i1 %8, label %10, label %9

9:                                                ; preds = %.lr.ph
  tail call void @_ZdaPv(ptr noundef nonnull %7) #28
  br label %10

10:                                               ; preds = %.lr.ph, %9
  %indvars.iv.next = add nuw nsw i64 %indvars.iv, 1
  %exitcond.not = icmp eq i64 %indvars.iv.next, %wide.trip.count
  br i1 %exitcond.not, label %._crit_edge, label %.lr.ph, !llvm.loop !104

._crit_edge:                                      ; preds = %10, %3
  %11 = load ptr, ptr %2, align 8, !tbaa !101
  %12 = icmp eq ptr %11, null
  br i1 %12, label %14, label %13

13:                                               ; preds = %._crit_edge
  tail call void @_ZdaPv(ptr noundef nonnull %11) #28
  br label %14

14:                                               ; preds = %13, %._crit_edge
  ret void
}